target datalayout = "e-m:e-p270:32:32-p271:32:32-p272:64:64-i64:64-i128:128-f80:128-n8:16:32:64-S128"
target triple = "x86_64-pc-linux-gnu"

%struct.OpusRangeCoder = type { %struct.GetBitContext, %struct.RawBitsContext, i32, i32, i32, [1287 x i8], ptr, i32, i32, i32 }
%struct.GetBitContext = type { ptr, ptr, i32, i32, i32 }
%struct.RawBitsContext = type { ptr, i32, i32, i32 }

; Function Attrs: alwaysinline nounwind willreturn memory(none) uwtable
define internal i32 @av_zero_extend_c(i32 noundef %0, i32 noundef %1) #3 {
  %3 = alloca i32, align 4
  %4 = alloca i32, align 4
  store i32 %0, ptr %3, align 4, !tbaa !13
  store i32 %1, ptr %4, align 4, !tbaa !13
  %5 = load i32, ptr %3, align 4, !tbaa !13
  %6 = load i32, ptr %4, align 4, !tbaa !13
  %7 = shl i32 1, %6
  %8 = sub i32 %7, 1
  %9 = and i32 %5, %8
  ret i32 %9
}

; Function Attrs: nounwind uwtable
define i32 @ff_opus_rc_get_raw(ptr noundef %0, i32 noundef %1) #0 {
  %3 = alloca ptr, align 8
  %4 = alloca i32, align 4
  %5 = alloca i32, align 4
  store ptr %0, ptr %3, align 8, !tbaa !4
  store i32 %1, ptr %4, align 4, !tbaa !13
  call void @llvm.lifetime.start.p0(i64 4, ptr %5) #9
  store i32 0, ptr %5, align 4, !tbaa !13
  br label %6

6:                                                ; preds = %21, %2
  %7 = load ptr, ptr %3, align 8, !tbaa !4
  %8 = getelementptr inbounds nuw %struct.OpusRangeCoder, ptr %7, i32 0, i32 1
  %9 = getelementptr inbounds nuw %struct.RawBitsContext, ptr %8, i32 0, i32 1
  %10 = load i32, ptr %9, align 8, !tbaa !25
  %11 = icmp ne i32 %10, 0
  br i1 %11, label %12, label %19

12:                                               ; preds = %6
  %13 = load ptr, ptr %3, align 8, !tbaa !4
  %14 = getelementptr inbounds nuw %struct.OpusRangeCoder, ptr %13, i32 0, i32 1
  %15 = getelementptr inbounds nuw %struct.RawBitsContext, ptr %14, i32 0, i32 2
  %16 = load i32, ptr %15, align 4, !tbaa !26
  %17 = load i32, ptr %4, align 4, !tbaa !13
  %18 = icmp ult i32 %16, %17
  br label %19

19:                                               ; preds = %12, %6
  %20 = phi i1 [ false, %6 ], [ %18, %12 ]
  br i1 %20, label %21, label %49

21:                                               ; preds = %19
  %22 = load ptr, ptr %3, align 8, !tbaa !4
  %23 = getelementptr inbounds nuw %struct.OpusRangeCoder, ptr %22, i32 0, i32 1
  %24 = getelementptr inbounds nuw %struct.RawBitsContext, ptr %23, i32 0, i32 0
  %25 = load ptr, ptr %24, align 8, !tbaa !27
  %26 = getelementptr inbounds i8, ptr %25, i32 -1
  store ptr %26, ptr %24, align 8, !tbaa !27
  %27 = load i8, ptr %26, align 1, !tbaa !28
  %28 = zext i8 %27 to i32
  %29 = load ptr, ptr %3, align 8, !tbaa !4
  %30 = getelementptr inbounds nuw %struct.OpusRangeCoder, ptr %29, i32 0, i32 1
  %31 = getelementptr inbounds nuw %struct.RawBitsContext, ptr %30, i32 0, i32 2
  %32 = load i32, ptr %31, align 4, !tbaa !26
  %33 = shl i32 %28, %32
  %34 = load ptr, ptr %3, align 8, !tbaa !4
  %35 = getelementptr inbounds nuw %struct.OpusRangeCoder, ptr %34, i32 0, i32 1
  %36 = getelementptr inbounds nuw %struct.RawBitsContext, ptr %35, i32 0, i32 3
  %37 = load i32, ptr %36, align 8, !tbaa !29
  %38 = or i32 %37, %33
  store i32 %38, ptr %36, align 8, !tbaa !29
  %39 = load ptr, ptr %3, align 8, !tbaa !4
  %40 = getelementptr inbounds nuw %struct.OpusRangeCoder, ptr %39, i32 0, i32 1
  %41 = getelementptr inbounds nuw %struct.RawBitsContext, ptr %40, i32 0, i32 2
  %42 = load i32, ptr %41, align 4, !tbaa !26
  %43 = add i32 %42, 8
  store i32 %43, ptr %41, align 4, !tbaa !26
  %44 = load ptr, ptr %3, align 8, !tbaa !4
  %45 = getelementptr inbounds nuw %struct.OpusRangeCoder, ptr %44, i32 0, i32 1
  %46 = getelementptr inbounds nuw %struct.RawBitsContext, ptr %45, i32 0, i32 1
  %47 = load i32, ptr %46, align 8, !tbaa !25
  %48 = add i32 %47, -1
  store i32 %48, ptr %46, align 8, !tbaa !25
  br label %6, !llvm.loop !30

49:                                               ; preds = %19
  %50 = load ptr, ptr %3, align 8, !tbaa !4
  %51 = getelementptr inbounds nuw %struct.OpusRangeCoder, ptr %50, i32 0, i32 1
  %52 = getelementptr inbounds nuw %struct.RawBitsContext, ptr %51, i32 0, i32 3
  %53 = load i32, ptr %52, align 8, !tbaa !29
  %54 = load i32, ptr %4, align 4, !tbaa !13
  %55 = call i32 @av_zero_extend_c(i32 noundef %53, i32 noundef %54) #10
  store i32 %55, ptr %5, align 4, !tbaa !13
  %56 = load i32, ptr %4, align 4, !tbaa !13
  %57 = load ptr, ptr %3, align 8, !tbaa !4
  %58 = getelementptr inbounds nuw %struct.OpusRangeCoder, ptr %57, i32 0, i32 1
  %59 = getelementptr inbounds nuw %struct.RawBitsContext, ptr %58, i32 0, i32 3
  %60 = load i32, ptr %59, align 8, !tbaa !29
  %61 = lshr i32 %60, %56
  store i32 %61, ptr %59, align 8, !tbaa !29
  %62 = load i32, ptr %4, align 4, !tbaa !13
  %63 = load ptr, ptr %3, align 8, !tbaa !4
  %64 = getelementptr inbounds nuw %struct.OpusRangeCoder, ptr %63, i32 0, i32 1
  %65 = getelementptr inbounds nuw %struct.RawBitsContext, ptr %64, i32 0, i32 2
  %66 = load i32, ptr %65, align 4, !tbaa !26
  %67 = sub i32 %66, %62
  store i32 %67, ptr %65, align 4, !tbaa !26
  %68 = load i32, ptr %4, align 4, !tbaa !13
  %69 = load ptr, ptr %3, align 8, !tbaa !4
  %70 = getelementptr inbounds nuw %struct.OpusRangeCoder, ptr %69, i32 0, i32 4
  %71 = load i32, ptr %70, align 8, !tbaa !23
  %72 = add i32 %71, %68
  store i32 %72, ptr %70, align 8, !tbaa !23
  %73 = load i32, ptr %5, align 4, !tbaa !13
  call void @llvm.lifetime.end.p0(i64 4, ptr %5) #9
  ret i32 %73
}