; Function Attrs: nofree norecurse nosync nounwind memory(read, argmem: readwrite, inaccessiblemem: none) uwtable
define range(i32 0, -2147483648) i32 @ff_opus_rc_get_raw(ptr noundef captures(none) %0, i32 noundef %1) local_unnamed_addr #0 {
  %3 = getelementptr inbounds nuw i8, ptr %0, i64 44
  %4 = getelementptr inbounds nuw i8, ptr %0, i64 32
  %5 = getelementptr inbounds nuw i8, ptr %0, i64 40
  %.promoted = load i32, ptr %5, align 8, !tbaa !30
  %.not16 = icmp eq i32 %.promoted, 0
  %.pre = load i32, ptr %3, align 4, !tbaa !31
  br i1 %.not16, label %.critedge, label %.lr.ph

.lr.ph:                                           ; preds = %2
  %6 = getelementptr inbounds nuw i8, ptr %0, i64 48
  br label %7

7:                                                ; preds = %.lr.ph, %11
  %8 = phi i32 [ %.pre, %.lr.ph ], [ %19, %11 ]
  %9 = phi i32 [ %.promoted, %.lr.ph ], [ %20, %11 ]
  %10 = icmp ult i32 %8, %1
  br i1 %10, label %11, label %.critedge

11:                                               ; preds = %7
  %12 = load ptr, ptr %4, align 8, !tbaa !28
  %13 = getelementptr inbounds i8, ptr %12, i64 -1
  store ptr %13, ptr %4, align 8, !tbaa !28
  %14 = load i8, ptr %13, align 1, !tbaa !22
  %15 = zext i8 %14 to i32
  %16 = shl i32 %15, %8
  %17 = load i32, ptr %6, align 8, !tbaa !32
  %18 = or i32 %16, %17
  store i32 %18, ptr %6, align 8, !tbaa !32
  %19 = add i32 %8, 8
  store i32 %19, ptr %3, align 4, !tbaa !31
  %20 = add i32 %9, -1
  store i32 %20, ptr %5, align 8, !tbaa !30
  %.not = icmp eq i32 %20, 0
  br i1 %.not, label %.critedge, label %7, !llvm.loop !33

.critedge:                                        ; preds = %7, %11, %2
  %21 = phi i32 [ %.pre, %2 ], [ %8, %7 ], [ %19, %11 ]
  %22 = getelementptr inbounds nuw i8, ptr %0, i64 48
  %23 = load i32, ptr %22, align 8, !tbaa !32
  %notmask.i = shl nsw i32 -1, %1
  %24 = xor i32 %notmask.i, -1
  %25 = and i32 %23, %24
  %26 = lshr i32 %23, %1
  store i32 %26, ptr %22, align 8, !tbaa !32
  %27 = sub i32 %21, %1
  store i32 %27, ptr %3, align 4, !tbaa !31
  %28 = getelementptr inbounds nuw i8, ptr %0, i64 64
  %29 = load i32, ptr %28, align 8, !tbaa !21
  %30 = add i32 %29, %1
  store i32 %30, ptr %28, align 8, !tbaa !21
  ret i32 %25
}